; Function Attrs: nounwind uwtable
define noalias nonnull ptr @l___private_Lean_Meta_Tactic_Backtrack_0__Lean_Meta_Tactic_Backtrack_Backtrack_run___lambda__8(ptr noundef %0, ptr noundef %1, ptr readnone captures(none) %2, ptr readnone captures(none) %3, ptr readnone captures(none) %4, ptr readnone captures(none) %5, ptr noundef %6) local_unnamed_addr #0 {
  %8 = tail call ptr @l_Lean_exceptEmoji___rarg(ptr noundef %1) #4
  %9 = tail call ptr @l_Lean_stringToMessageData(ptr noundef %8) #4
  %10 = ptrtoint ptr %8 to i64
  %11 = and i64 %10, 1
  %.not = icmp eq i64 %11, 0
  br i1 %.not, label %12, label %lean_dec.exit

12:                                               ; preds = %7
  %13 = load i32, ptr %8, align 4, !tbaa !4
  %14 = icmp sgt i32 %13, 1
  br i1 %14, label %15, label %17, !prof !9

15:                                               ; preds = %12
  %16 = add nsw i32 %13, -1
  store i32 %16, ptr %8, align 4, !tbaa !4
  br label %lean_dec.exit

17:                                               ; preds = %12
  %.not.i = icmp eq i32 %13, 0
  br i1 %.not.i, label %lean_dec.exit, label %18

18:                                               ; preds = %17
  tail call void @lean_dec_ref_cold(ptr noundef nonnull %8) #4
  br label %lean_dec.exit

lean_dec.exit:                                    ; preds = %18, %17, %15, %7
  %19 = load ptr, ptr @l___private_Lean_Meta_Tactic_Backtrack_0__Lean_Meta_Tactic_Backtrack_Backtrack_run___lambda__1___closed__2, align 8, !tbaa !10
  tail call void @lean_inc_heartbeat() #4
  %20 = tail call noalias ptr @mi_malloc_small(i64 noundef 24) #4
  %21 = icmp eq ptr %20, null
  br i1 %21, label %22, label %lean_alloc_ctor.exit

22:                                               ; preds = %lean_dec.exit
  tail call void @lean_internal_panic_out_of_memory() #5
  unreachable

lean_alloc_ctor.exit:                             ; preds = %lean_dec.exit
  %23 = getelementptr inbounds nuw i8, ptr %20, i64 4
  store i32 1, ptr %20, align 4, !tbaa !4
  store i32 117571608, ptr %23, align 4
  %24 = getelementptr inbounds nuw i8, ptr %20, i64 8
  store ptr %19, ptr %24, align 8, !tbaa !10
  %25 = getelementptr inbounds nuw i8, ptr %20, i64 16
  store ptr %9, ptr %25, align 8, !tbaa !10
  %26 = load ptr, ptr @l___private_Lean_Meta_Tactic_Backtrack_0__Lean_Meta_Tactic_Backtrack_Backtrack_run___lambda__8___closed__2, align 8, !tbaa !10
  tail call void @lean_inc_heartbeat() #4
  %27 = tail call noalias ptr @mi_malloc_small(i64 noundef 24) #4
  %28 = icmp eq ptr %27, null
  br i1 %28, label %29, label %lean_alloc_ctor.exit26

29:                                               ; preds = %lean_alloc_ctor.exit
  tail call void @lean_internal_panic_out_of_memory() #5
  unreachable

lean_alloc_ctor.exit26:                           ; preds = %lean_alloc_ctor.exit
  %30 = getelementptr inbounds nuw i8, ptr %27, i64 4
  store i32 1, ptr %27, align 4, !tbaa !4
  store i32 117571608, ptr %30, align 4
  %31 = getelementptr inbounds nuw i8, ptr %27, i64 8
  store ptr %20, ptr %31, align 8, !tbaa !10
  %32 = getelementptr inbounds nuw i8, ptr %27, i64 16
  store ptr %26, ptr %32, align 8, !tbaa !10
  tail call void @lean_inc_heartbeat() #4
  %33 = tail call noalias ptr @mi_malloc_small(i64 noundef 16) #4
  %34 = icmp eq ptr %33, null
  br i1 %34, label %35, label %lean_alloc_ctor.exit27

35:                                               ; preds = %lean_alloc_ctor.exit26
  tail call void @lean_internal_panic_out_of_memory() #5
  unreachable

lean_alloc_ctor.exit27:                           ; preds = %lean_alloc_ctor.exit26
  %36 = getelementptr inbounds nuw i8, ptr %33, i64 4
  store i32 1, ptr %33, align 4, !tbaa !4
  store i32 16842768, ptr %36, align 4
  %37 = getelementptr inbounds nuw i8, ptr %33, i64 8
  store ptr %0, ptr %37, align 8, !tbaa !10
  tail call void @lean_inc_heartbeat() #4
  %38 = tail call noalias ptr @mi_malloc_small(i64 noundef 24) #4
  %39 = icmp eq ptr %38, null
  br i1 %39, label %40, label %lean_alloc_ctor.exit28

40:                                               ; preds = %lean_alloc_ctor.exit27
  tail call void @lean_internal_panic_out_of_memory() #5
  unreachable

lean_alloc_ctor.exit28:                           ; preds = %lean_alloc_ctor.exit27
  %41 = getelementptr inbounds nuw i8, ptr %38, i64 4
  store i32 1, ptr %38, align 4, !tbaa !4
  store i32 117571608, ptr %41, align 4
  %42 = getelementptr inbounds nuw i8, ptr %38, i64 8
  store ptr %27, ptr %42, align 8, !tbaa !10
  %43 = getelementptr inbounds nuw i8, ptr %38, i64 16
  store ptr %33, ptr %43, align 8, !tbaa !10
  tail call void @lean_inc_heartbeat() #4
  %44 = tail call noalias ptr @mi_malloc_small(i64 noundef 24) #4
  %45 = icmp eq ptr %44, null
  br i1 %45, label %46, label %lean_alloc_ctor.exit29

46:                                               ; preds = %lean_alloc_ctor.exit28
  tail call void @lean_internal_panic_out_of_memory() #5
  unreachable

lean_alloc_ctor.exit29:                           ; preds = %lean_alloc_ctor.exit28
  %47 = getelementptr inbounds nuw i8, ptr %44, i64 4
  store i32 1, ptr %44, align 4, !tbaa !4
  store i32 117571608, ptr %47, align 4
  %48 = getelementptr inbounds nuw i8, ptr %44, i64 8
  store ptr %38, ptr %48, align 8, !tbaa !10
  %49 = getelementptr inbounds nuw i8, ptr %44, i64 16
  store ptr %19, ptr %49, align 8, !tbaa !10
  tail call void @lean_inc_heartbeat() #4
  %50 = tail call noalias ptr @mi_malloc_small(i64 noundef 24) #4
  %51 = icmp eq ptr %50, null
  br i1 %51, label %52, label %lean_alloc_ctor.exit30

52:                                               ; preds = %lean_alloc_ctor.exit29
  tail call void @lean_internal_panic_out_of_memory() #5
  unreachable

lean_alloc_ctor.exit30:                           ; preds = %lean_alloc_ctor.exit29
  %53 = getelementptr inbounds nuw i8, ptr %50, i64 4
  store i32 1, ptr %50, align 4, !tbaa !4
  store i32 131096, ptr %53, align 4
  %54 = getelementptr inbounds nuw i8, ptr %50, i64 8
  store ptr %44, ptr %54, align 8, !tbaa !10
  %55 = getelementptr inbounds nuw i8, ptr %50, i64 16
  store ptr %6, ptr %55, align 8, !tbaa !10
  ret ptr %50
}